; Function Attrs: mustprogress uwtable
define dso_local void @_ZNKR5vcpkg14DiagnosticLine17reduce_to_warningEv(ptr dead_on_unwind noalias nonnull writable sret(%"struct.vcpkg::DiagnosticLine") align 8 initializes((0, 4), (8, 9), (16, 17)) %0, ptr noundef nonnull readonly align 8 captures(none) dereferenceable(88) %1) local_unnamed_addr #0 align 2 {
  %3 = load i32, ptr %1, align 8, !tbaa !30
  %4 = icmp eq i32 %3, 2
  %spec.select = select i1 %4, i32 3, i32 %3
  %5 = getelementptr inbounds nuw i8, ptr %1, i64 8
  %6 = getelementptr inbounds nuw i8, ptr %1, i64 48
  %.sroa.0.0.copyload = load i64, ptr %6, align 8
  %7 = getelementptr inbounds nuw i8, ptr %1, i64 56
  tail call void @_ZN5vcpkg14DiagnosticLineC2ENS_8DiagKindERKNS_8OptionalINSt7__cxx1112basic_stringIcSt11char_traitsIcESaIcEEEEENS_10TextRowColERKNS_15LocalizedStringE(ptr noundef nonnull align 8 dereferenceable(88) %0, i32 noundef %spec.select, ptr noundef nonnull align 8 dereferenceable(40) %5, i64 %.sroa.0.0.copyload, ptr noundef nonnull align 8 dereferenceable(32) %7)
  ret void
}